target datalayout = "e-m:e-p270:32:32-p271:32:32-p272:64:64-i64:64-i128:128-f80:128-n8:16:32:64-S128"
target triple = "x86_64-pc-linux-gnu"

; Function Attrs: nounwind uwtable
define i32 @Dau_CountSymms2(i64 noundef %0, i32 noundef %1) #0 {
  %3 = alloca i64, align 8
  %4 = alloca i32, align 4
  %5 = alloca i64, align 8
  %6 = alloca i64, align 8
  %7 = alloca i32, align 4
  %8 = alloca i32, align 4
  %9 = alloca i32, align 4
  store i64 %0, ptr %3, align 8, !tbaa !7
  store i32 %1, ptr %4, align 4, !tbaa !3
  call void @llvm.lifetime.start.p0(i64 8, ptr %5) #12
  call void @llvm.lifetime.start.p0(i64 8, ptr %6) #12
  call void @llvm.lifetime.start.p0(i64 4, ptr %7) #12
  call void @llvm.lifetime.start.p0(i64 4, ptr %8) #12
  call void @llvm.lifetime.start.p0(i64 4, ptr %9) #12
  store i32 0, ptr %9, align 4, !tbaa !3
  store i32 0, ptr %7, align 4, !tbaa !3
  br label %10

10:                                               ; preds = %37, %2
  %11 = load i32, ptr %7, align 4, !tbaa !3
  %12 = load i32, ptr %4, align 4, !tbaa !3
  %13 = icmp slt i32 %11, %12
  br i1 %13, label %14, label %40

14:                                               ; preds = %10
  %15 = load i32, ptr %7, align 4, !tbaa !3
  %16 = add nsw i32 %15, 1
  store i32 %16, ptr %8, align 4, !tbaa !3
  br label %17

17:                                               ; preds = %33, %14
  %18 = load i32, ptr %8, align 4, !tbaa !3
  %19 = load i32, ptr %4, align 4, !tbaa !3
  %20 = icmp slt i32 %18, %19
  br i1 %20, label %21, label %36

21:                                               ; preds = %17
  %22 = load i32, ptr %4, align 4, !tbaa !3
  %23 = load i32, ptr %7, align 4, !tbaa !3
  %24 = load i32, ptr %8, align 4, !tbaa !3
  %25 = call i32 @Abc_TtVarsAreSymmetric(ptr noundef %3, i32 noundef %22, i32 noundef %23, i32 noundef %24, ptr noundef %5, ptr noundef %6)
  %26 = icmp ne i32 %25, 0
  br i1 %26, label %27, label %32

27:                                               ; preds = %21
  %28 = load i32, ptr %8, align 4, !tbaa !3
  %29 = shl i32 1, %28
  %30 = load i32, ptr %9, align 4, !tbaa !3
  %31 = or i32 %30, %29
  store i32 %31, ptr %9, align 4, !tbaa !3
  br label %32

32:                                               ; preds = %27, %21
  br label %33

33:                                               ; preds = %32
  %34 = load i32, ptr %8, align 4, !tbaa !3
  %35 = add nsw i32 %34, 1
  store i32 %35, ptr %8, align 4, !tbaa !3
  br label %17, !llvm.loop !49

36:                                               ; preds = %17
  br label %37

37:                                               ; preds = %36
  %38 = load i32, ptr %7, align 4, !tbaa !3
  %39 = add nsw i32 %38, 1
  store i32 %39, ptr %7, align 4, !tbaa !3
  br label %10, !llvm.loop !50

40:                                               ; preds = %10
  %41 = load i32, ptr %9, align 4, !tbaa !3
  call void @llvm.lifetime.end.p0(i64 4, ptr %9) #12
  call void @llvm.lifetime.end.p0(i64 4, ptr %8) #12
  call void @llvm.lifetime.end.p0(i64 4, ptr %7) #12
  call void @llvm.lifetime.end.p0(i64 8, ptr %6) #12
  call void @llvm.lifetime.end.p0(i64 8, ptr %5) #12
  ret i32 %41
}