; Function Attrs: nofree norecurse nosync nounwind memory(none) uwtable
define i32 @Dau_CountSymms2(i64 noundef %0, i32 noundef %1) local_unnamed_addr #7 {
  %3 = alloca i64, align 8
  %4 = alloca i64, align 8
  %5 = alloca i64, align 8
  store i64 %0, ptr %3, align 8, !tbaa !18
  call void @llvm.lifetime.start.p0(i64 8, ptr nonnull %4) #26
  call void @llvm.lifetime.start.p0(i64 8, ptr nonnull %5) #26
  %6 = icmp sgt i32 %1, 0
  br i1 %6, label %.lr.ph20, label %._crit_edge

.loopexit:                                        ; preds = %.lr.ph, %.lr.ph20
  %.1.lcssa = phi i32 [ %.019, %.lr.ph20 ], [ %.2, %.lr.ph ]
  %exitcond22.not = icmp eq i32 %7, %1
  br i1 %exitcond22.not, label %._crit_edge, label %.lr.ph20, !llvm.loop !52

.lr.ph20:                                         ; preds = %2, %.loopexit
  %.019 = phi i32 [ %.1.lcssa, %.loopexit ], [ 0, %2 ]
  %.01418 = phi i32 [ %7, %.loopexit ], [ 0, %2 ]
  %7 = add nuw nsw i32 %.01418, 1
  %8 = icmp slt i32 %7, %1
  br i1 %8, label %.lr.ph, label %.loopexit

.lr.ph:                                           ; preds = %.lr.ph20, %.lr.ph
  %.117 = phi i32 [ %.2, %.lr.ph ], [ %.019, %.lr.ph20 ]
  %.01316 = phi i32 [ %12, %.lr.ph ], [ %7, %.lr.ph20 ]
  %9 = call fastcc i32 @Abc_TtVarsAreSymmetric(ptr noundef %3, i32 noundef %1, i32 noundef %.01418, i32 noundef %.01316, ptr noundef %4, ptr noundef %5)
  %.not = icmp eq i32 %9, 0
  %10 = shl nuw i32 1, %.01316
  %11 = select i1 %.not, i32 0, i32 %10
  %.2 = or i32 %11, %.117
  %12 = add nuw i32 %.01316, 1
  %exitcond.not = icmp eq i32 %12, %1
  br i1 %exitcond.not, label %.loopexit, label %.lr.ph, !llvm.loop !53

._crit_edge:                                      ; preds = %.loopexit, %2
  %.0.lcssa = phi i32 [ 0, %2 ], [ %.1.lcssa, %.loopexit ]
  call void @llvm.lifetime.end.p0(i64 8, ptr nonnull %5) #26
  call void @llvm.lifetime.end.p0(i64 8, ptr nonnull %4) #26
  ret i32 %.0.lcssa
}